target datalayout = "e-m:e-p270:32:32-p271:32:32-p272:64:64-i64:64-i128:128-f80:128-n8:16:32:64-S128"
target triple = "x86_64-pc-linux-gnu"

%struct.lua_TValue = type { %union.Value, i32 }
%union.Value = type { ptr }
%struct.lua_State = type { ptr, i8, i8, i8, ptr, ptr, ptr, ptr, ptr, ptr, ptr, ptr, ptr, i32, i32, i16, i16, i8, i8, i32, i32, ptr, %struct.lua_TValue, %struct.lua_TValue, ptr, ptr, ptr, i64 }
%struct.CallInfo = type { ptr, ptr, ptr, ptr, i32, i32 }
%struct.global_State = type { %struct.stringtable, ptr, ptr, i8, i8, i32, ptr, ptr, ptr, ptr, ptr, ptr, %struct.Mbuffer, i64, i64, i64, i64, i32, i32, ptr, %struct.lua_TValue, ptr, %struct.UpVal, [9 x ptr], [17 x ptr] }
%struct.stringtable = type { ptr, i32, i32 }
%struct.Mbuffer = type { ptr, i64, i64 }
%struct.UpVal = type { ptr, i8, i8, ptr, %union.anon }
%union.anon = type { %struct.lua_TValue }
%struct.CClosure = type { ptr, i8, i8, i8, i8, ptr, ptr, ptr, [1 x %struct.lua_TValue] }

; Function Attrs: nounwind uwtable
define internal ptr @getcurrenv(ptr noundef %0) #0 {
  %2 = alloca ptr, align 8
  %3 = alloca ptr, align 8
  %4 = alloca ptr, align 8
  store ptr %0, ptr %3, align 8, !tbaa !4
  %5 = load ptr, ptr %3, align 8, !tbaa !4
  %6 = getelementptr inbounds nuw %struct.lua_State, ptr %5, i32 0, i32 7
  %7 = load ptr, ptr %6, align 8, !tbaa !28
  %8 = load ptr, ptr %3, align 8, !tbaa !4
  %9 = getelementptr inbounds nuw %struct.lua_State, ptr %8, i32 0, i32 12
  %10 = load ptr, ptr %9, align 8, !tbaa !51
  %11 = icmp eq ptr %7, %10
  br i1 %11, label %12, label %17

12:                                               ; preds = %1
  %13 = load ptr, ptr %3, align 8, !tbaa !4
  %14 = getelementptr inbounds nuw %struct.lua_State, ptr %13, i32 0, i32 22
  %15 = getelementptr inbounds nuw %struct.lua_TValue, ptr %14, i32 0, i32 0
  %16 = load ptr, ptr %15, align 8, !tbaa !23
  store ptr %16, ptr %2, align 8
  br label %28

17:                                               ; preds = %1
  call void @llvm.lifetime.start.p0(i64 8, ptr %4) #6
  %18 = load ptr, ptr %3, align 8, !tbaa !4
  %19 = getelementptr inbounds nuw %struct.lua_State, ptr %18, i32 0, i32 7
  %20 = load ptr, ptr %19, align 8, !tbaa !28
  %21 = getelementptr inbounds nuw %struct.CallInfo, ptr %20, i32 0, i32 1
  %22 = load ptr, ptr %21, align 8, !tbaa !47
  %23 = getelementptr inbounds nuw %struct.lua_TValue, ptr %22, i32 0, i32 0
  %24 = load ptr, ptr %23, align 8, !tbaa !23
  store ptr %24, ptr %4, align 8, !tbaa !48
  %25 = load ptr, ptr %4, align 8, !tbaa !48
  %26 = getelementptr inbounds nuw %struct.CClosure, ptr %25, i32 0, i32 6
  %27 = load ptr, ptr %26, align 8, !tbaa !23
  store ptr %27, ptr %2, align 8
  call void @llvm.lifetime.end.p0(i64 8, ptr %4) #6
  br label %28

28:                                               ; preds = %17, %12
  %29 = load ptr, ptr %2, align 8
  ret ptr %29
}

; Function Attrs: nounwind uwtable
define dso_local void @lua_pushcclosure(ptr noundef %0, ptr noundef %1, i32 noundef %2) #0 {
  %4 = alloca ptr, align 8
  %5 = alloca ptr, align 8
  %6 = alloca i32, align 4
  %7 = alloca ptr, align 8
  %8 = alloca ptr, align 8
  %9 = alloca ptr, align 8
  %10 = alloca ptr, align 8
  store ptr %0, ptr %4, align 8, !tbaa !4
  store ptr %1, ptr %5, align 8, !tbaa !34
  store i32 %2, ptr %6, align 4, !tbaa !25
  call void @llvm.lifetime.start.p0(i64 8, ptr %7) #6
  %11 = load ptr, ptr %4, align 8, !tbaa !4
  %12 = getelementptr inbounds nuw %struct.lua_State, ptr %11, i32 0, i32 6
  %13 = load ptr, ptr %12, align 8, !tbaa !35
  %14 = getelementptr inbounds nuw %struct.global_State, ptr %13, i32 0, i32 14
  %15 = load i64, ptr %14, align 8, !tbaa !43
  %16 = load ptr, ptr %4, align 8, !tbaa !4
  %17 = getelementptr inbounds nuw %struct.lua_State, ptr %16, i32 0, i32 6
  %18 = load ptr, ptr %17, align 8, !tbaa !35
  %19 = getelementptr inbounds nuw %struct.global_State, ptr %18, i32 0, i32 13
  %20 = load i64, ptr %19, align 8, !tbaa !44
  %21 = icmp uge i64 %15, %20
  br i1 %21, label %22, label %24

22:                                               ; preds = %3
  %23 = load ptr, ptr %4, align 8, !tbaa !4
  call void @luaC_step(ptr noundef %23)
  br label %24

24:                                               ; preds = %22, %3
  %25 = load ptr, ptr %4, align 8, !tbaa !4
  %26 = load i32, ptr %6, align 4, !tbaa !25
  %27 = load ptr, ptr %4, align 8, !tbaa !4
  %28 = call ptr @getcurrenv(ptr noundef %27)
  %29 = call ptr @luaF_newCclosure(ptr noundef %25, i32 noundef %26, ptr noundef %28)
  store ptr %29, ptr %7, align 8, !tbaa !48
  %30 = load ptr, ptr %5, align 8, !tbaa !34
  %31 = load ptr, ptr %7, align 8, !tbaa !48
  %32 = getelementptr inbounds nuw %struct.CClosure, ptr %31, i32 0, i32 7
  store ptr %30, ptr %32, align 8, !tbaa !23
  %33 = load i32, ptr %6, align 4, !tbaa !25
  %34 = load ptr, ptr %4, align 8, !tbaa !4
  %35 = getelementptr inbounds nuw %struct.lua_State, ptr %34, i32 0, i32 4
  %36 = load ptr, ptr %35, align 8, !tbaa !11
  %37 = sext i32 %33 to i64
  %38 = sub i64 0, %37
  %39 = getelementptr inbounds %struct.lua_TValue, ptr %36, i64 %38
  store ptr %39, ptr %35, align 8, !tbaa !11
  br label %40

40:                                               ; preds = %44, %24
  %41 = load i32, ptr %6, align 4, !tbaa !25
  %42 = add nsw i32 %41, -1
  store i32 %42, ptr %6, align 4, !tbaa !25
  %43 = icmp ne i32 %41, 0
  br i1 %43, label %44, label %65

44:                                               ; preds = %40
  call void @llvm.lifetime.start.p0(i64 8, ptr %8) #6
  %45 = load ptr, ptr %4, align 8, !tbaa !4
  %46 = getelementptr inbounds nuw %struct.lua_State, ptr %45, i32 0, i32 4
  %47 = load ptr, ptr %46, align 8, !tbaa !11
  %48 = load i32, ptr %6, align 4, !tbaa !25
  %49 = sext i32 %48 to i64
  %50 = getelementptr inbounds %struct.lua_TValue, ptr %47, i64 %49
  store ptr %50, ptr %8, align 8, !tbaa !9
  call void @llvm.lifetime.start.p0(i64 8, ptr %9) #6
  %51 = load ptr, ptr %7, align 8, !tbaa !48
  %52 = getelementptr inbounds nuw %struct.CClosure, ptr %51, i32 0, i32 8
  %53 = load i32, ptr %6, align 4, !tbaa !25
  %54 = sext i32 %53 to i64
  %55 = getelementptr inbounds [1 x %struct.lua_TValue], ptr %52, i64 0, i64 %54
  store ptr %55, ptr %9, align 8, !tbaa !9
  %56 = load ptr, ptr %9, align 8, !tbaa !9
  %57 = getelementptr inbounds nuw %struct.lua_TValue, ptr %56, i32 0, i32 0
  %58 = load ptr, ptr %8, align 8, !tbaa !9
  %59 = getelementptr inbounds nuw %struct.lua_TValue, ptr %58, i32 0, i32 0
  call void @llvm.memcpy.p0.p0.i64(ptr align 8 %57, ptr align 8 %59, i64 8, i1 false), !tbaa.struct !22
  %60 = load ptr, ptr %8, align 8, !tbaa !9
  %61 = getelementptr inbounds nuw %struct.lua_TValue, ptr %60, i32 0, i32 1
  %62 = load i32, ptr %61, align 8, !tbaa !24
  %63 = load ptr, ptr %9, align 8, !tbaa !9
  %64 = getelementptr inbounds nuw %struct.lua_TValue, ptr %63, i32 0, i32 1
  store i32 %62, ptr %64, align 8, !tbaa !24
  call void @llvm.lifetime.end.p0(i64 8, ptr %9) #6
  call void @llvm.lifetime.end.p0(i64 8, ptr %8) #6
  br label %40, !llvm.loop !60

65:                                               ; preds = %40
  call void @llvm.lifetime.start.p0(i64 8, ptr %10) #6
  %66 = load ptr, ptr %4, align 8, !tbaa !4
  %67 = getelementptr inbounds nuw %struct.lua_State, ptr %66, i32 0, i32 4
  %68 = load ptr, ptr %67, align 8, !tbaa !11
  store ptr %68, ptr %10, align 8, !tbaa !9
  %69 = load ptr, ptr %7, align 8, !tbaa !48
  %70 = load ptr, ptr %10, align 8, !tbaa !9
  %71 = getelementptr inbounds nuw %struct.lua_TValue, ptr %70, i32 0, i32 0
  store ptr %69, ptr %71, align 8, !tbaa !23
  %72 = load ptr, ptr %10, align 8, !tbaa !9
  %73 = getelementptr inbounds nuw %struct.lua_TValue, ptr %72, i32 0, i32 1
  store i32 6, ptr %73, align 8, !tbaa !24
  call void @llvm.lifetime.end.p0(i64 8, ptr %10) #6
  %74 = load ptr, ptr %4, align 8, !tbaa !4
  %75 = getelementptr inbounds nuw %struct.lua_State, ptr %74, i32 0, i32 4
  %76 = load ptr, ptr %75, align 8, !tbaa !11
  %77 = getelementptr inbounds nuw %struct.lua_TValue, ptr %76, i32 1
  store ptr %77, ptr %75, align 8, !tbaa !11
  call void @llvm.lifetime.end.p0(i64 8, ptr %7) #6
  ret void
}