; Function Attrs: nounwind uwtable
define dso_local void @lua_pushcclosure(ptr noundef %0, ptr noundef %1, i32 noundef %2) local_unnamed_addr #2 {
  %4 = getelementptr inbounds nuw i8, ptr %0, i64 32
  %5 = load ptr, ptr %4, align 8, !tbaa !29
  %6 = getelementptr inbounds nuw i8, ptr %5, i64 120
  %7 = load i64, ptr %6, align 8, !tbaa !38
  %8 = getelementptr inbounds nuw i8, ptr %5, i64 112
  %9 = load i64, ptr %8, align 8, !tbaa !39
  %.not = icmp ult i64 %7, %9
  br i1 %.not, label %11, label %10

10:                                               ; preds = %3
  tail call void @luaC_step(ptr noundef nonnull %0) #14
  br label %11

11:                                               ; preds = %10, %3
  %12 = getelementptr inbounds nuw i8, ptr %0, i64 40
  %13 = load ptr, ptr %12, align 8, !tbaa !23
  %14 = getelementptr inbounds nuw i8, ptr %0, i64 80
  %15 = load ptr, ptr %14, align 8, !tbaa !44
  %16 = icmp eq ptr %13, %15
  br i1 %16, label %17, label %19

17:                                               ; preds = %11
  %18 = getelementptr inbounds nuw i8, ptr %0, i64 120
  br label %getcurrenv.exit

19:                                               ; preds = %11
  %20 = getelementptr inbounds nuw i8, ptr %13, i64 8
  %21 = load ptr, ptr %20, align 8, !tbaa !41
  %22 = load ptr, ptr %21, align 8, !tbaa !19
  %23 = getelementptr inbounds nuw i8, ptr %22, i64 24
  br label %getcurrenv.exit

getcurrenv.exit:                                  ; preds = %17, %19
  %.0.in.i = phi ptr [ %18, %17 ], [ %23, %19 ]
  %.0.i = load ptr, ptr %.0.in.i, align 8, !tbaa !19
  %24 = tail call ptr @luaF_newCclosure(ptr noundef nonnull %0, i32 noundef %2, ptr noundef %.0.i) #14
  %25 = getelementptr inbounds nuw i8, ptr %24, i64 32
  store ptr %1, ptr %25, align 8, !tbaa !19
  %26 = getelementptr inbounds nuw i8, ptr %0, i64 16
  %27 = load ptr, ptr %26, align 8, !tbaa !4
  %28 = sext i32 %2 to i64
  %29 = sub nsw i64 0, %28
  %30 = getelementptr inbounds %struct.lua_TValue, ptr %27, i64 %29
  store ptr %30, ptr %26, align 8, !tbaa !4
  %.not2324 = icmp eq i32 %2, 0
  br i1 %.not2324, label %._crit_edge, label %.lr.ph

.lr.ph:                                           ; preds = %getcurrenv.exit
  %31 = getelementptr inbounds nuw i8, ptr %24, i64 40
  br label %32

32:                                               ; preds = %.lr.ph, %32
  %indvars.iv = phi i64 [ %28, %.lr.ph ], [ %indvars.iv.next, %32 ]
  %indvars.iv.next = add nsw i64 %indvars.iv, -1
  %33 = load ptr, ptr %26, align 8, !tbaa !4
  %34 = getelementptr inbounds %struct.lua_TValue, ptr %33, i64 %indvars.iv.next
  %35 = getelementptr inbounds [1 x %struct.lua_TValue], ptr %31, i64 0, i64 %indvars.iv.next
  %36 = load i64, ptr %34, align 8, !tbaa !19
  store i64 %36, ptr %35, align 8, !tbaa !19
  %37 = getelementptr inbounds nuw i8, ptr %34, i64 8
  %38 = load i32, ptr %37, align 8, !tbaa !20
  %39 = getelementptr inbounds nuw i8, ptr %35, i64 8
  store i32 %38, ptr %39, align 8, !tbaa !20
  %.not23 = icmp eq i64 %indvars.iv.next, 0
  br i1 %.not23, label %._crit_edge.loopexit, label %32, !llvm.loop !47

._crit_edge.loopexit:                             ; preds = %32
  %.pre = load ptr, ptr %26, align 8, !tbaa !4
  br label %._crit_edge

._crit_edge:                                      ; preds = %._crit_edge.loopexit, %getcurrenv.exit
  %40 = phi ptr [ %.pre, %._crit_edge.loopexit ], [ %30, %getcurrenv.exit ]
  store ptr %24, ptr %40, align 8, !tbaa !19
  %41 = getelementptr inbounds nuw i8, ptr %40, i64 8
  store i32 6, ptr %41, align 8, !tbaa !20
  %42 = load ptr, ptr %26, align 8, !tbaa !4
  %43 = getelementptr inbounds nuw i8, ptr %42, i64 16
  store ptr %43, ptr %26, align 8, !tbaa !4
  ret void
}